target datalayout = "e-m:e-p270:32:32-p271:32:32-p272:64:64-i64:64-i128:128-f80:128-n8:16:32:64-S128"
target triple = "x86_64-pc-linux-gnu"

%struct._capture_file = type { ptr, i32, ptr, ptr, i8, i8, i8, i64, i16, i32, i32, i32, ptr, i32, i64, i32, i32, i32, i32, i8, i32, %struct.nstime_t, i32, ptr, ptr, ptr, i8, i8, i32, ptr, i8, i8, i8, i8, i8, i32, i32, i8, ptr, i32, i32, i8, %struct.packet_provider_data, i32, i32, %struct.epan_column_info, ptr, ptr, ptr, %struct.wtap_rec, %struct.Buffer, ptr, i64, i32 }
%struct.nstime_t = type { i64, i32 }
%struct.packet_provider_data = type { ptr, ptr, ptr, ptr, ptr, ptr }
%struct.epan_column_info = type { ptr, i32, ptr, ptr, ptr, %struct.col_expr_t, i8, ptr }
%struct.col_expr_t = type { ptr, ptr }
%struct.wtap_rec = type { i32, i32, i32, %struct.nstime_t, i32, %struct.nstime_t, i8, %union.anon, ptr, i8, %struct.Buffer, %struct.Buffer }
%union.anon = type { %struct.wtap_packet_header }
%struct.wtap_packet_header = type { i32, i32, i32, i32, %union.wtap_pseudo_header }
%union.wtap_pseudo_header = type { %struct.erf_mc_phdr }
%struct.erf_mc_phdr = type { %struct.erf_phdr, [16 x %struct.erf_ehdr], %union.anon.1 }
%struct.erf_phdr = type { i64, i8, i8, i16, i16, i16 }
%struct.erf_ehdr = type { i64 }
%union.anon.1 = type { i32 }
%struct.Buffer = type { ptr, i64, i64, i64 }
%struct.epan_dissect = type { ptr, ptr, ptr, %struct._packet_info }
%struct._packet_info = type { ptr, ptr, i32, i32, %struct.nstime_t, %struct.nstime_t, %struct.nstime_t, i8, ptr, ptr, ptr, ptr, %struct._address, %struct._address, %struct._address, %struct._address, %struct._address, %struct._address, i32, ptr, i8, [3 x i8], %struct.anon.3, i32, i32, i32, i32, ptr, i8, ptr, ptr, i16, i16, i32, i32, i16, i32, i32, ptr, ptr, ptr, i8, i8, i16, i16, i16, i32, i16, i16, ptr, ptr, ptr, ptr, ptr, i32, i32 }
%struct._address = type { i32, i32, ptr, ptr }
%struct.anon.3 = type { i8, [3 x i8] }
%struct.match_data = type { ptr, i64, ptr, ptr, ptr, i8, i8 }

; Function Attrs: null_pointer_is_valid sspstrong uwtable
define hidden zeroext i1 @cf_find_packet_protocol_tree(ptr noundef %0, ptr noundef %1, i32 noundef %2, i1 noundef zeroext %3) #1 {
  %5 = alloca i1, align 1
  %6 = alloca ptr, align 8
  %7 = alloca ptr, align 8
  %8 = alloca i32, align 4
  %9 = alloca i8, align 1
  %10 = alloca %struct.match_data, align 8
  %11 = alloca i32, align 4
  store ptr %0, ptr %6, align 8
  store ptr %1, ptr %7, align 8
  store i32 %2, ptr %8, align 4
  %12 = zext i1 %3 to i8
  store i8 %12, ptr %9, align 1
  call void @llvm.lifetime.start.p0(i64 48, ptr %10) #19
  %13 = getelementptr inbounds nuw %struct.match_data, ptr %10, i32 0, i32 5
  store i8 0, ptr %13, align 8
  %14 = getelementptr inbounds nuw %struct.match_data, ptr %10, i32 0, i32 6
  store i8 0, ptr %14, align 1
  %15 = load ptr, ptr %7, align 8
  %16 = getelementptr inbounds nuw %struct.match_data, ptr %10, i32 0, i32 0
  store ptr %15, ptr %16, align 8
  %17 = load ptr, ptr %7, align 8
  %18 = call i64 @strlen(ptr noundef %17) #25
  %19 = getelementptr inbounds nuw %struct.match_data, ptr %10, i32 0, i32 1
  store i64 %18, ptr %19, align 8
  %20 = load ptr, ptr %6, align 8
  %21 = getelementptr inbounds nuw %struct.match_data, ptr %10, i32 0, i32 2
  store ptr %20, ptr %21, align 8
  %22 = load ptr, ptr %6, align 8
  %23 = getelementptr inbounds nuw %struct._capture_file, ptr %22, i32 0, i32 48
  %24 = load ptr, ptr %23, align 8
  %25 = getelementptr inbounds nuw %struct.match_data, ptr %10, i32 0, i32 4
  store ptr %24, ptr %25, align 8
  %26 = load i8, ptr %9, align 1, !range !8, !noundef !9
  %27 = trunc i8 %26 to i1
  br i1 %27, label %28, label %62

28:                                               ; preds = %4
  %29 = load ptr, ptr %6, align 8
  %30 = getelementptr inbounds nuw %struct._capture_file, ptr %29, i32 0, i32 48
  %31 = load ptr, ptr %30, align 8
  %32 = icmp ne ptr %31, null
  br i1 %32, label %33, label %62

33:                                               ; preds = %28
  %34 = load ptr, ptr %6, align 8
  %35 = getelementptr inbounds nuw %struct._capture_file, ptr %34, i32 0, i32 47
  %36 = load ptr, ptr %35, align 8
  %37 = icmp ne ptr %36, null
  br i1 %37, label %38, label %62

38:                                               ; preds = %33
  %39 = load i32, ptr %8, align 4
  %40 = icmp eq i32 %39, 0
  br i1 %40, label %41, label %47

41:                                               ; preds = %38
  %42 = load ptr, ptr %6, align 8
  %43 = getelementptr inbounds nuw %struct._capture_file, ptr %42, i32 0, i32 47
  %44 = load ptr, ptr %43, align 8
  %45 = getelementptr inbounds nuw %struct.epan_dissect, ptr %44, i32 0, i32 2
  %46 = load ptr, ptr %45, align 8
  call void @proto_tree_children_foreach(ptr noundef %46, ptr noundef @match_subtree_text, ptr noundef %10)
  br label %53

47:                                               ; preds = %38
  %48 = load ptr, ptr %6, align 8
  %49 = getelementptr inbounds nuw %struct._capture_file, ptr %48, i32 0, i32 47
  %50 = load ptr, ptr %49, align 8
  %51 = getelementptr inbounds nuw %struct.epan_dissect, ptr %50, i32 0, i32 2
  %52 = load ptr, ptr %51, align 8
  call void @proto_tree_children_foreach(ptr noundef %52, ptr noundef @match_subtree_text_reverse, ptr noundef %10)
  br label %53

53:                                               ; preds = %47, %41
  %54 = getelementptr inbounds nuw %struct.match_data, ptr %10, i32 0, i32 5
  %55 = load i8, ptr %54, align 8, !range !8, !noundef !9
  %56 = trunc i8 %55 to i1
  br i1 %56, label %57, label %61

57:                                               ; preds = %53
  %58 = getelementptr inbounds nuw %struct.match_data, ptr %10, i32 0, i32 3
  %59 = load ptr, ptr %58, align 8
  %60 = call zeroext i1 @packet_list_select_finfo(ptr noundef %59)
  store i1 true, ptr %5, align 1
  store i32 1, ptr %11, align 4
  br label %66

61:                                               ; preds = %53
  br label %62

62:                                               ; preds = %61, %33, %28, %4
  %63 = load ptr, ptr %6, align 8
  %64 = load i32, ptr %8, align 4
  %65 = call zeroext i1 @find_packet(ptr noundef %63, ptr noundef @match_protocol_tree, ptr noundef %10, i32 noundef %64, i1 noundef zeroext true)
  store i1 %65, ptr %5, align 1
  store i32 1, ptr %11, align 4
  br label %66

66:                                               ; preds = %62, %57
  call void @llvm.lifetime.end.p0(i64 48, ptr %10) #19
  %67 = load i1, ptr %5, align 1
  ret i1 %67
}