; Function Attrs: null_pointer_is_valid sspstrong uwtable
define hidden noundef zeroext i1 @cf_find_packet_protocol_tree(ptr noundef %0, ptr noundef %1, i32 noundef %2, i1 noundef zeroext %3) local_unnamed_addr #1 {
  %5 = alloca %struct.match_data, align 8
  call void @llvm.lifetime.start.p0(i64 48, ptr nonnull %5) #23
  %6 = getelementptr inbounds nuw i8, ptr %5, i64 40
  store i8 0, ptr %6, align 8
  %7 = getelementptr inbounds nuw i8, ptr %5, i64 41
  store i8 0, ptr %7, align 1
  store ptr %1, ptr %5, align 8
  %8 = tail call i64 @strlen(ptr noundef %1) #26
  %9 = getelementptr inbounds nuw i8, ptr %5, i64 8
  store i64 %8, ptr %9, align 8
  %10 = getelementptr inbounds nuw i8, ptr %5, i64 16
  store ptr %0, ptr %10, align 8
  %11 = getelementptr inbounds nuw i8, ptr %0, i64 368
  %12 = load ptr, ptr %11, align 8
  %13 = getelementptr inbounds nuw i8, ptr %5, i64 32
  store ptr %12, ptr %13, align 8
  %.not = icmp ne ptr %12, null
  %or.cond.not = select i1 %3, i1 %.not, i1 false
  br i1 %or.cond.not, label %14, label %27

14:                                               ; preds = %4
  %15 = getelementptr inbounds nuw i8, ptr %0, i64 360
  %16 = load ptr, ptr %15, align 8
  %.not13 = icmp eq ptr %16, null
  br i1 %.not13, label %27, label %17

17:                                               ; preds = %14
  %18 = icmp eq i32 %2, 0
  %19 = getelementptr inbounds nuw i8, ptr %16, i64 16
  %20 = load ptr, ptr %19, align 8
  %match_subtree_text.match_subtree_text_reverse = select i1 %18, ptr @match_subtree_text, ptr @match_subtree_text_reverse
  call void @proto_tree_children_foreach(ptr noundef %20, ptr noundef nonnull %match_subtree_text.match_subtree_text_reverse, ptr noundef nonnull %5)
  %21 = load i8, ptr %6, align 8, !range !9, !noundef !10
  %22 = trunc nuw i8 %21 to i1
  br i1 %22, label %23, label %27

23:                                               ; preds = %17
  %24 = getelementptr inbounds nuw i8, ptr %5, i64 24
  %25 = load ptr, ptr %24, align 8
  %26 = call zeroext i1 @packet_list_select_finfo(ptr noundef %25)
  br label %29

27:                                               ; preds = %17, %14, %4
  %28 = call fastcc zeroext i1 @find_packet(ptr noundef %0, ptr noundef nonnull @match_protocol_tree, ptr noundef nonnull %5, i32 noundef %2, i1 noundef zeroext true)
  br label %29

29:                                               ; preds = %27, %23
  %.0 = phi i1 [ true, %23 ], [ %28, %27 ]
  call void @llvm.lifetime.end.p0(i64 48, ptr nonnull %5) #23
  ret i1 %.0
}